; Function Attrs: mustprogress uwtable
define void @_ZN4cvc56parser11ParserState17getParametricSortERKNSt7__cxx1112basic_stringIcSt11char_traitsIcESaIcEEERKSt6vectorINS_4SortESaISB_EE(ptr noalias sret(%"class.cvc5::Sort") align 8 %agg.result, ptr nocapture noundef nonnull readonly align 8 dereferenceable(168) %this, ptr noundef nonnull align 8 dereferenceable(32) %name, ptr noundef nonnull align 8 dereferenceable(24) %params) unnamed_addr #3 align 2 personality ptr @__gxx_personality_v0 {
entry:
  %agg.tmp = alloca %"class.std::__cxx11::basic_string", align 8
  %ref.tmp = alloca %"class.std::allocator.13", align 1
  %d_symtab = getelementptr inbounds i8, ptr %this, i64 32
  %0 = load ptr, ptr %d_symtab, align 8
  tail call void @_ZNK4cvc58internal6parser11SymbolTable10lookupTypeERKNSt7__cxx1112basic_stringIcSt11char_traitsIcESaIcEEERKSt6vectorINS_4SortESaISC_EE(ptr sret(%"class.cvc5::Sort") align 8 %agg.result, ptr noundef nonnull align 8 dereferenceable(8) %0, ptr noundef nonnull align 8 dereferenceable(32) %name, ptr noundef nonnull align 8 dereferenceable(24) %params)
  %call = invoke noundef zeroext i1 @_ZNK4cvc54Sort6isNullEv(ptr noundef nonnull align 8 dereferenceable(24) %agg.result)
          to label %invoke.cont unwind label %lpad

invoke.cont:                                      ; preds = %entry
  br i1 %call, label %if.then, label %nrvo.skipdtor

if.then:                                          ; preds = %invoke.cont
  call void @_ZNSaIcEC1Ev(ptr noundef nonnull align 1 dereferenceable(1) %ref.tmp) #23
  %call.i4 = invoke noundef ptr @_ZNSt7__cxx1112basic_stringIcSt11char_traitsIcESaIcEE13_M_local_dataEv(ptr noundef nonnull align 8 dereferenceable(32) %agg.tmp)
          to label %call.i.noexc unwind label %lpad2

call.i.noexc:                                     ; preds = %if.then
  invoke void @_ZNSt7__cxx1112basic_stringIcSt11char_traitsIcESaIcEE12_Alloc_hiderC1EPcRKS3_(ptr noundef nonnull align 8 dereferenceable(8) %agg.tmp, ptr noundef %call.i4, ptr noundef nonnull align 1 dereferenceable(1) %ref.tmp)
          to label %.noexc unwind label %lpad2

.noexc:                                           ; preds = %call.i.noexc
  invoke void @_ZNSt7__cxx1112basic_stringIcSt11char_traitsIcESaIcEE12_M_constructIPKcEEvT_S8_St20forward_iterator_tag(ptr noundef nonnull align 8 dereferenceable(32) %agg.tmp, ptr noundef nonnull @.str.1, ptr noundef nonnull @.str.1)
          to label %invoke.cont3 unwind label %lpad.i

lpad.i:                                           ; preds = %.noexc
  %1 = landingpad { ptr, i32 }
          cleanup
  call void @_ZNSaIcED2Ev(ptr noundef nonnull align 1 dereferenceable(1) %agg.tmp) #23
  br label %ehcleanup

invoke.cont3:                                     ; preds = %.noexc
  invoke void @_ZN4cvc56parser11ParserState16checkDeclarationERKNSt7__cxx1112basic_stringIcSt11char_traitsIcESaIcEEENS0_16DeclarationCheckENS0_10SymbolTypeES7_(ptr noundef nonnull align 8 dereferenceable(168) %this, ptr noundef nonnull align 8 dereferenceable(32) %name, i32 noundef 0, i32 noundef 1, ptr noundef nonnull %agg.tmp)
          to label %invoke.cont5 unwind label %lpad4

invoke.cont5:                                     ; preds = %invoke.cont3
  call void @_ZNSt7__cxx1112basic_stringIcSt11char_traitsIcESaIcEED1Ev(ptr noundef nonnull align 8 dereferenceable(32) %agg.tmp) #23
  call void @_ZNSaIcED1Ev(ptr noundef nonnull align 1 dereferenceable(1) %ref.tmp) #23
  br label %nrvo.skipdtor

lpad:                                             ; preds = %entry
  %2 = landingpad { ptr, i32 }
          cleanup
  br label %ehcleanup6

lpad2:                                            ; preds = %call.i.noexc, %if.then
  %3 = landingpad { ptr, i32 }
          cleanup
  br label %ehcleanup

lpad4:                                            ; preds = %invoke.cont3
  %4 = landingpad { ptr, i32 }
          cleanup
  call void @_ZNSt7__cxx1112basic_stringIcSt11char_traitsIcESaIcEED1Ev(ptr noundef nonnull align 8 dereferenceable(32) %agg.tmp) #23
  br label %ehcleanup

ehcleanup:                                        ; preds = %lpad2, %lpad.i, %lpad4
  %.pn = phi { ptr, i32 } [ %4, %lpad4 ], [ %3, %lpad2 ], [ %1, %lpad.i ]
  call void @_ZNSaIcED1Ev(ptr noundef nonnull align 1 dereferenceable(1) %ref.tmp) #23
  br label %ehcleanup6

nrvo.skipdtor:                                    ; preds = %invoke.cont, %invoke.cont5
  ret void

ehcleanup6:                                       ; preds = %ehcleanup, %lpad
  %.pn.pn = phi { ptr, i32 } [ %.pn, %ehcleanup ], [ %2, %lpad ]
  call void @_ZN4cvc54SortD1Ev(ptr noundef nonnull align 8 dereferenceable(24) %agg.result) #23
  resume { ptr, i32 } %.pn.pn
}